; Function Attrs: mustprogress uwtable
define void @_ZN4base8internal14AppendToStringERKNS_16BasicStringPieceINSt7__cxx1112basic_stringItNS_20string16_char_traitsESaItEEEEEPS6_(ptr noundef nonnull readonly align 8 captures(none) dereferenceable(16) %0, ptr noundef %1) local_unnamed_addr #1 personality ptr @__gxx_personality_v0 {
  %3 = getelementptr inbounds nuw i8, ptr %0, i64 8
  %4 = load i64, ptr %3, align 8, !tbaa !38
  %5 = icmp eq i64 %4, 0
  br i1 %5, label %_ZN4base8internal15AppendToStringTINSt7__cxx1112basic_stringItNS_20string16_char_traitsESaItEEEEEvRKNS_16BasicStringPieceIT_EEPS8_.exit, label %6

6:                                                ; preds = %2
  %7 = getelementptr inbounds nuw i8, ptr %1, i64 8
  %8 = load i64, ptr %7, align 8, !tbaa !42
  %9 = sub i64 2305843009213693951, %8
  %10 = icmp ult i64 %9, %4
  br i1 %10, label %11, label %_ZNSt7__cxx1112basic_stringItN4base20string16_char_traitsESaItEE6appendEPKtm.exit.i

11:                                               ; preds = %6
  tail call void @_ZSt20__throw_length_errorPKc(ptr noundef nonnull @.str.1) #16
  unreachable

_ZNSt7__cxx1112basic_stringItN4base20string16_char_traitsESaItEE6appendEPKtm.exit.i: ; preds = %6
  %12 = load ptr, ptr %0, align 8, !tbaa !35
  %13 = tail call noundef nonnull align 8 dereferenceable(32) ptr @_ZNSt7__cxx1112basic_stringItN4base20string16_char_traitsESaItEE9_M_appendEPKtm(ptr noundef nonnull align 8 dereferenceable(32) %1, ptr noundef %12, i64 noundef %4)
  br label %_ZN4base8internal15AppendToStringTINSt7__cxx1112basic_stringItNS_20string16_char_traitsESaItEEEEEvRKNS_16BasicStringPieceIT_EEPS8_.exit

_ZN4base8internal15AppendToStringTINSt7__cxx1112basic_stringItNS_20string16_char_traitsESaItEEEEEvRKNS_16BasicStringPieceIT_EEPS8_.exit: ; preds = %2, %_ZNSt7__cxx1112basic_stringItN4base20string16_char_traitsESaItEE6appendEPKtm.exit.i
  ret void
}